; ModuleID = 'source-C-CXX/55/1433.c'
source_filename = "source-C-CXX/55/1433.c"
target datalayout = "e-m:e-p270:32:32-p271:32:32-p272:64:64-i64:64-f80:128-n8:16:32:64-S128"
target triple = "x86_64-pc-linux-gnu"

@.str = private unnamed_addr constant [3 x i8] c"%s\00", align 1

; Function Attrs: nounwind sspstrong uwtable
define dso_local i32 @main(i32 %0, i8** nocapture readnone %1) local_unnamed_addr #0 {
  %3 = alloca [6 x i8], align 1
  %4 = getelementptr inbounds [6 x i8], [6 x i8]* %3, i64 0, i64 0
  call void @llvm.lifetime.start.p0i8(i64 6, i8* nonnull %4) #5
  %5 = call i32 (i8*, ...) bitcast (i32 (...)* @gets to i32 (i8*, ...)*)(i8* nonnull %4) #5
  %6 = call i64 @strlen(i8* noundef nonnull %4) #6
  %7 = trunc i64 %6 to i32
  %8 = icmp sgt i32 %7, 1
  br i1 %8, label %9, label %49

9:                                                ; preds = %2
  %10 = lshr i64 %6, 1
  %11 = and i64 %10, 2147483647
  %12 = and i64 %10, 1
  %13 = icmp eq i64 %11, 1
  br i1 %13, label %37, label %14

14:                                               ; preds = %9
  %15 = sub nsw i64 %11, %12
  br label %16

16:                                               ; preds = %16, %14
  %17 = phi i64 [ 0, %14 ], [ %27, %16 ]
  %18 = phi i64 [ %15, %14 ], [ %35, %16 ]
  %19 = or i64 %17, 1
  %20 = sub i64 %6, %19
  %21 = shl i64 %20, 32
  %22 = ashr exact i64 %21, 32
  %23 = getelementptr inbounds [6 x i8], [6 x i8]* %3, i64 0, i64 %22
  %24 = load i8, i8* %23, align 1, !tbaa !5
  %25 = getelementptr inbounds [6 x i8], [6 x i8]* %3, i64 0, i64 %17
  %26 = load i8, i8* %25, align 1, !tbaa !5
  store i8 %26, i8* %23, align 1, !tbaa !5
  store i8 %24, i8* %25, align 1, !tbaa !5
  %27 = add nuw nsw i64 %17, 2
  %28 = sub i64 %6, %27
  %29 = shl i64 %28, 32
  %30 = ashr exact i64 %29, 32
  %31 = getelementptr inbounds [6 x i8], [6 x i8]* %3, i64 0, i64 %30
  %32 = load i8, i8* %31, align 1, !tbaa !5
  %33 = getelementptr inbounds [6 x i8], [6 x i8]* %3, i64 0, i64 %19
  %34 = load i8, i8* %33, align 1, !tbaa !5
  store i8 %34, i8* %31, align 1, !tbaa !5
  store i8 %32, i8* %33, align 1, !tbaa !5
  %35 = add i64 %18, -2
  %36 = icmp eq i64 %35, 0
  br i1 %36, label %37, label %16, !llvm.loop !8

37:                                               ; preds = %16, %9
  %38 = phi i64 [ 0, %9 ], [ %27, %16 ]
  %39 = icmp eq i64 %12, 0
  br i1 %39, label %49, label %40

40:                                               ; preds = %37
  %41 = xor i64 %38, -1
  %42 = add i64 %6, %41
  %43 = shl i64 %42, 32
  %44 = ashr exact i64 %43, 32
  %45 = getelementptr inbounds [6 x i8], [6 x i8]* %3, i64 0, i64 %44
  %46 = load i8, i8* %45, align 1, !tbaa !5
  %47 = getelementptr inbounds [6 x i8], [6 x i8]* %3, i64 0, i64 %38
  %48 = load i8, i8* %47, align 1, !tbaa !5
  store i8 %48, i8* %45, align 1, !tbaa !5
  store i8 %46, i8* %47, align 1, !tbaa !5
  br label %49

49:                                               ; preds = %40, %37, %2
  %50 = call i32 (i8*, ...) @printf(i8* nonnull dereferenceable(1) getelementptr inbounds ([3 x i8], [3 x i8]* @.str, i64 0, i64 0), i8* nonnull %4)
  call void @llvm.lifetime.end.p0i8(i64 6, i8* nonnull %4) #5
  ret i32 0
}

; Function Attrs: argmemonly mustprogress nofree nosync nounwind willreturn
declare void @llvm.lifetime.start.p0i8(i64 immarg, i8* nocapture) #1

declare i32 @gets(...) local_unnamed_addr #2

; Function Attrs: argmemonly mustprogress nofree nounwind readonly willreturn
declare i64 @strlen(i8* nocapture) local_unnamed_addr #3

; Function Attrs: nofree nounwind
declare noundef i32 @printf(i8* nocapture noundef readonly, ...) local_unnamed_addr #4

; Function Attrs: argmemonly mustprogress nofree nosync nounwind willreturn
declare void @llvm.lifetime.end.p0i8(i64 immarg, i8* nocapture) #1


!llvm.module.flags = !{!0, !1, !2, !3}
!llvm.ident = !{!4}

!0 = !{i32 1, !"wchar_size", i32 4}
!1 = !{i32 7, !"PIC Level", i32 2}
!2 = !{i32 7, !"PIE Level", i32 2}
!3 = !{i32 7, !"uwtable", i32 1}
!4 = !{!"clang version 13.0.0"}
!5 = !{!6, !6, i64 0}
!6 = !{!"omnipotent char", !7, i64 0}
!7 = !{!"Simple C/C++ TBAA"}
!8 = distinct !{!8, !9}
!9 = !{!"llvm.loop.mustprogress"}
